; Function Attrs: mustprogress uwtable
define void @_ZN6LibRaw16parse_thumb_noteEijj(ptr noundef nonnull align 8 dereferenceable(767680) %0, i32 noundef %1, i32 noundef %2, i32 noundef %3) local_unnamed_addr #0 align 2 {
  %5 = alloca i32, align 4
  %6 = alloca i32, align 4
  %7 = alloca i32, align 4
  %8 = alloca i32, align 4
  call void @llvm.lifetime.start.p0(i64 4, ptr nonnull %5) #13
  call void @llvm.lifetime.start.p0(i64 4, ptr nonnull %6) #13
  call void @llvm.lifetime.start.p0(i64 4, ptr nonnull %7) #13
  call void @llvm.lifetime.start.p0(i64 4, ptr nonnull %8) #13
  %9 = tail call noundef zeroext i16 @_ZN6LibRaw4get2Ev(ptr noundef nonnull align 8 dereferenceable(767680) %0)
  %.not5 = icmp eq i16 %9, 0
  br i1 %.not5, label %._crit_edge, label %.lr.ph

.lr.ph:                                           ; preds = %4
  %10 = zext i16 %9 to i32
  %11 = getelementptr inbounds nuw i8, ptr %0, i64 381456
  %12 = getelementptr inbounds nuw i8, ptr %0, i64 193360
  %13 = getelementptr inbounds nuw i8, ptr %0, i64 381416
  br label %14

14:                                               ; preds = %.lr.ph, %27
  %.in = phi i32 [ %10, %.lr.ph ], [ %15, %27 ]
  %15 = add nsw i32 %.in, -1
  call void @_ZN6LibRaw8tiff_getEjPjS0_S0_S0_(ptr noundef nonnull align 8 dereferenceable(767680) %0, i32 noundef %1, ptr noundef nonnull %5, ptr noundef nonnull %6, ptr noundef nonnull %7, ptr noundef nonnull %8)
  %16 = load i32, ptr %5, align 4, !tbaa !128
  %17 = icmp eq i32 %16, %2
  br i1 %17, label %18, label %22

18:                                               ; preds = %14
  %19 = call noundef i32 @_ZN6LibRaw4get4Ev(ptr noundef nonnull align 8 dereferenceable(767680) %0)
  %20 = add i32 %19, %1
  %21 = zext i32 %20 to i64
  store i64 %21, ptr %11, align 8, !tbaa !110
  %.pre = load i32, ptr %5, align 4, !tbaa !128
  br label %22

22:                                               ; preds = %18, %14
  %23 = phi i32 [ %.pre, %18 ], [ %16, %14 ]
  %24 = icmp eq i32 %23, %3
  br i1 %24, label %25, label %27

25:                                               ; preds = %22
  %26 = call noundef i32 @_ZN6LibRaw4get4Ev(ptr noundef nonnull align 8 dereferenceable(767680) %0)
  store i32 %26, ptr %12, align 8, !tbaa !129
  br label %27

27:                                               ; preds = %25, %22
  %28 = load ptr, ptr %13, align 8, !tbaa !6
  %29 = load i32, ptr %8, align 4, !tbaa !128
  %30 = zext i32 %29 to i64
  %31 = load ptr, ptr %28, align 8, !tbaa !71
  %32 = getelementptr inbounds nuw i8, ptr %31, i64 32
  %33 = load ptr, ptr %32, align 8
  %34 = call noundef i32 %33(ptr noundef nonnull align 8 dereferenceable(8) %28, i64 noundef %30, i32 noundef 0)
  %.not = icmp eq i32 %15, 0
  br i1 %.not, label %._crit_edge, label %14, !llvm.loop !130

._crit_edge:                                      ; preds = %27, %4
  call void @llvm.lifetime.end.p0(i64 4, ptr nonnull %8) #13
  call void @llvm.lifetime.end.p0(i64 4, ptr nonnull %7) #13
  call void @llvm.lifetime.end.p0(i64 4, ptr nonnull %6) #13
  call void @llvm.lifetime.end.p0(i64 4, ptr nonnull %5) #13
  ret void
}